; Function Attrs: nounwind uwtable
define hidden noundef i32 @dom_characterdata_length_read(ptr noundef %0, ptr nocapture noundef writeonly %1) local_unnamed_addr #0 {
  %3 = tail call ptr @dom_object_get_node(ptr noundef %0) #6
  %4 = icmp eq ptr %3, null
  br i1 %4, label %5, label %6

5:                                                ; preds = %2
  tail call void @php_dom_throw_error(i32 noundef 11, i32 noundef 1) #6
  br label %14

6:                                                ; preds = %2
  %7 = getelementptr inbounds i8, ptr %3, i64 80
  %8 = load ptr, ptr %7, align 8
  %.not = icmp eq ptr %8, null
  br i1 %.not, label %12, label %9

9:                                                ; preds = %6
  %10 = tail call i32 @xmlUTF8Strlen(ptr noundef nonnull %8) #6
  %11 = sext i32 %10 to i64
  br label %12

12:                                               ; preds = %6, %9
  %.08 = phi i64 [ %11, %9 ], [ 0, %6 ]
  store i64 %.08, ptr %1, align 8
  %13 = getelementptr inbounds i8, ptr %1, i64 8
  store i32 4, ptr %13, align 8
  br label %14

14:                                               ; preds = %12, %5
  %.0 = phi i32 [ -1, %5 ], [ 0, %12 ]
  ret i32 %.0
}